---
triple:          'arm64-apple-darwin'
binary-path:     'build/debug/physics'
relocations:
  - { offsetInCU: 0x5BBE, offset: 0x5BBE, size: 0x8, addend: 0x0, symName: __ZNSt3__124__put_character_sequenceB8ue170006IcNS_11char_traitsIcEEEERNS_13basic_ostreamIT_T0_EES7_PKS4_m, symObjAddr: 0x102C, symBinAddr: 0x1000016A4, symSize: 0x1EC }
  - { offsetInCU: 0x79C1, offset: 0x79C1, size: 0x8, addend: 0x0, symName: __ZNSt3__1lsB8ue170006INS_11char_traitsIcEEEERNS_13basic_ostreamIcT_EES6_PKc, symObjAddr: 0x2DC, symBinAddr: 0x100000954, symSize: 0x48 }
  - { offsetInCU: 0x7A07, offset: 0x7A07, size: 0x8, addend: 0x0, symName: __ZNSt3__14endlB8ue170006IcNS_11char_traitsIcEEEERNS_13basic_ostreamIT_T0_EES7_, symObjAddr: 0x350, symBinAddr: 0x1000009C8, symSize: 0x58 }
  - { offsetInCU: 0x7A47, offset: 0x7A47, size: 0x8, addend: 0x0, symName: __ZNSt3__1neB8ue170006IP9RectangleEEbRKNS_11__wrap_iterIT_EES7_, symObjAddr: 0x654, symBinAddr: 0x100000CCC, symSize: 0x34 }
  - { offsetInCU: 0x7A8A, offset: 0x7A8A, size: 0x8, addend: 0x0, symName: __ZNSt3__1eqB8ue170006IP9RectangleEEbRKNS_11__wrap_iterIT_EES7_, symObjAddr: 0x908, symBinAddr: 0x100000F80, symSize: 0x48 }
  - { offsetInCU: 0x7ACD, offset: 0x7ACD, size: 0x8, addend: 0x0, symName: __ZNSt3__112__to_addressB8ue170006I9RectangleEEPT_S3_, symObjAddr: 0xE3C, symBinAddr: 0x1000014B4, symSize: 0x14 }
  - { offsetInCU: 0x7B02, offset: 0x7B02, size: 0x8, addend: 0x0, symName: __ZNSt3__119__libcpp_deallocateB8ue170006EPvmm, symObjAddr: 0xF18, symBinAddr: 0x100001590, symSize: 0x30 }
  - { offsetInCU: 0x7B4A, offset: 0x7B4A, size: 0x8, addend: 0x0, symName: __ZNSt3__127__do_deallocate_handle_sizeB8ue170006IJEEEvPvmDpT_, symObjAddr: 0xF48, symBinAddr: 0x1000015C0, symSize: 0x28 }
  - { offsetInCU: 0x7B88, offset: 0x7B88, size: 0x8, addend: 0x0, symName: __ZNSt3__124__libcpp_operator_deleteB8ue170006IJPvEEEvDpT_, symObjAddr: 0xF70, symBinAddr: 0x1000015E8, symSize: 0x24 }
  - { offsetInCU: 0x7BBD, offset: 0x7BBD, size: 0x8, addend: 0x0, symName: __ZNSt3__116__pad_and_outputB8ue170006IcNS_11char_traitsIcEEEENS_19ostreambuf_iteratorIT_T0_EES6_PKS4_S8_S8_RNS_8ios_baseES4_, symObjAddr: 0x1268, symBinAddr: 0x1000018E0, symSize: 0x240 }
  - { offsetInCU: 0x7C8C, offset: 0x7C8C, size: 0x8, addend: 0x0, symName: __ZNSt3__112__to_addressB8ue170006IKcEEPT_S3_, symObjAddr: 0x17D0, symBinAddr: 0x100001E48, symSize: 0x14 }
  - { offsetInCU: 0x7CF4, offset: 0x7CF4, size: 0x8, addend: 0x0, symName: __ZNSt3__19use_facetB8ue170006INS_5ctypeIcEEEERKT_RKNS_6localeE, symObjAddr: 0x1A50, symBinAddr: 0x1000020C8, symSize: 0x2C }
  - { offsetInCU: 0x81C1, offset: 0x81C1, size: 0x8, addend: 0x0, symName: __ZNSt3__118__constexpr_strlenB8ue170006EPKc, symObjAddr: 0x1AE8, symBinAddr: 0x100002160, symSize: 0x24 }
  - { offsetInCU: 0x81ED, offset: 0x81ED, size: 0x8, addend: 0x0, symName: __ZNSt3__13maxB8ue170006ImEERKT_S3_S3_, symObjAddr: 0x20BC, symBinAddr: 0x100002734, symSize: 0x2C }
  - { offsetInCU: 0x8230, offset: 0x8230, size: 0x8, addend: 0x0, symName: __ZNSt3__13minB8ue170006ImEERKT_S3_S3_, symObjAddr: 0x20E8, symBinAddr: 0x100002760, symSize: 0x2C }
  - { offsetInCU: 0x8474, offset: 0x8474, size: 0x8, addend: 0x0, symName: __ZNSt3__13minB8ue170006ImNS_6__lessIvvEEEERKT_S5_S5_T0_, symObjAddr: 0x2174, symBinAddr: 0x1000027EC, symSize: 0x54 }
  - { offsetInCU: 0x8513, offset: 0x8513, size: 0x8, addend: 0x0, symName: __ZNSt3__120__throw_length_errorB8ue170006EPKc, symObjAddr: 0x2254, symBinAddr: 0x1000028CC, symSize: 0x64 }
  - { offsetInCU: 0x853D, offset: 0x853D, size: 0x8, addend: 0x0, symName: __ZNSt3__13maxB8ue170006ImNS_6__lessIvvEEEERKT_S5_S5_T0_, symObjAddr: 0x2338, symBinAddr: 0x1000029B0, symSize: 0x54 }
  - { offsetInCU: 0x8597, offset: 0x8597, size: 0x8, addend: 0x0, symName: __ZNSt3__119__allocate_at_leastB8ue170006INS_9allocatorI9RectangleEEEENS_19__allocation_resultINS_16allocator_traitsIT_E7pointerEEERS6_m, symObjAddr: 0x24A8, symBinAddr: 0x100002B20, symSize: 0x40 }
  - { offsetInCU: 0x85DA, offset: 0x85DA, size: 0x8, addend: 0x0, symName: __ZNSt3__117__libcpp_allocateB8ue170006Emm, symObjAddr: 0x2630, symBinAddr: 0x100002CA8, symSize: 0x28 }
  - { offsetInCU: 0x8617, offset: 0x8617, size: 0x8, addend: 0x0, symName: __ZNSt3__121__libcpp_operator_newB8ue170006IJmEEEPvDpT_, symObjAddr: 0x2658, symBinAddr: 0x100002CD0, symSize: 0x24 }
  - { offsetInCU: 0x8650, offset: 0x8650, size: 0x8, addend: 0x0, symName: __ZNSt3__142__uninitialized_allocator_move_if_noexceptB8ue170006INS_9allocatorI9RectangleEENS_16reverse_iteratorIPS2_EES6_S2_vEET1_RT_T0_SA_S7_, symObjAddr: 0x26E0, symBinAddr: 0x100002D58, symSize: 0x78 }
  - { offsetInCU: 0x86CD, offset: 0x86CD, size: 0x8, addend: 0x0, symName: __ZNSt3__14swapB8ue170006IP9RectangleEENS_9enable_ifIXaasr21is_move_constructibleIT_EE5valuesr18is_move_assignableIS4_EE5valueEvE4typeERS4_S7_, symObjAddr: 0x27A4, symBinAddr: 0x100002E1C, symSize: 0x3C }
  - { offsetInCU: 0x871E, offset: 0x871E, size: 0x8, addend: 0x0, symName: __ZNSt3__14moveB8ue170006INS_16reverse_iteratorIP9RectangleEES4_EET0_T_S6_S5_, symObjAddr: 0x28A8, symBinAddr: 0x100002F20, symSize: 0x78 }
  - { offsetInCU: 0x8778, offset: 0x8778, size: 0x8, addend: 0x0, symName: __ZNSt3__16__moveB8ue170006INS_17_ClassicAlgPolicyENS_16reverse_iteratorIP9RectangleEES5_S5_EENS_4pairIT0_T2_EES7_T1_S8_, symObjAddr: 0x2920, symBinAddr: 0x100002F98, symSize: 0x64 }
  - { offsetInCU: 0x87E4, offset: 0x87E4, size: 0x8, addend: 0x0, symName: __ZNSt3__123__dispatch_copy_or_moveB8ue170006INS_17_ClassicAlgPolicyENS_11__move_loopIS1_EENS_14__move_trivialENS_16reverse_iteratorIP9RectangleEES8_S8_EENS_4pairIT2_T4_EESA_T3_SB_, symObjAddr: 0x2984, symBinAddr: 0x100002FFC, symSize: 0x64 }
  - { offsetInCU: 0x8862, offset: 0x8862, size: 0x8, addend: 0x0, symName: __ZNSt3__121__unwrap_and_dispatchB8ue170006INS_10__overloadINS_11__move_loopINS_17_ClassicAlgPolicyEEENS_14__move_trivialEEENS_16reverse_iteratorIP9RectangleEESA_SA_Li0EEENS_4pairIT0_T2_EESC_T1_SD_, symObjAddr: 0x29E8, symBinAddr: 0x100003060, symSize: 0x12C }
  - { offsetInCU: 0x88F2, offset: 0x88F2, size: 0x8, addend: 0x0, symName: __ZNSt3__114__unwrap_rangeB8ue170006INS_16reverse_iteratorIP9RectangleEES4_EENS_4pairIT0_S6_EET_S8_, symObjAddr: 0x2B14, symBinAddr: 0x10000318C, symSize: 0x84 }
  - { offsetInCU: 0x8A6D, offset: 0x8A6D, size: 0x8, addend: 0x0, symName: __ZNSt3__113__unwrap_iterB8ue170006INS_16reverse_iteratorIP9RectangleEENS_18__unwrap_iter_implIS4_Lb0EEELi0EEEDTclsrT0_8__unwrapclsr3stdE7declvalIT_EEEES8_, symObjAddr: 0x2C40, symBinAddr: 0x1000032B8, symSize: 0x44 }
  - { offsetInCU: 0x8AB1, offset: 0x8AB1, size: 0x8, addend: 0x0, symName: __ZNSt3__19make_pairB8ue170006INS_16reverse_iteratorIP9RectangleEES4_EENS_4pairINS_18__unwrap_ref_decayIT_E4typeENS6_IT0_E4typeEEEOS7_OSA_, symObjAddr: 0x2C84, symBinAddr: 0x1000032FC, symSize: 0x38 }
  - { offsetInCU: 0x8B00, offset: 0x8B00, size: 0x8, addend: 0x0, symName: __ZNSt3__114__rewrap_rangeB8ue170006INS_16reverse_iteratorIP9RectangleEES4_EET_S5_T0_, symObjAddr: 0x2CBC, symBinAddr: 0x100003334, symSize: 0x5C }
  - { offsetInCU: 0x8B4C, offset: 0x8B4C, size: 0x8, addend: 0x0, symName: __ZNSt3__113__rewrap_iterB8ue170006INS_16reverse_iteratorIP9RectangleEES4_NS_18__unwrap_iter_implIS4_Lb0EEEEET_S7_T0_, symObjAddr: 0x2D18, symBinAddr: 0x100003390, symSize: 0x74 }
  - { offsetInCU: 0x8BA1, offset: 0x8BA1, size: 0x8, addend: 0x0, symName: __ZNSt3__1neB8ue170006IP9RectangleS2_EEbRKNS_16reverse_iteratorIT_EERKNS3_IT0_EE, symObjAddr: 0x2D8C, symBinAddr: 0x100003404, symSize: 0x48 }
  - { offsetInCU: 0x8FC6, offset: 0x8FC6, size: 0x8, addend: 0x0, symName: __ZSt28__throw_bad_array_new_lengthB8ue170006v, symObjAddr: 0x25FC, symBinAddr: 0x100002C74, symSize: 0x34 }
  - { offsetInCU: 0x9736, offset: 0x9736, size: 0x8, addend: 0x0, symName: __ZNSt3__16vectorI9RectangleNS_9allocatorIS1_EEE26__swap_out_circular_bufferERNS_14__split_bufferIS1_RS3_EE, symObjAddr: 0x1F04, symBinAddr: 0x10000257C, symSize: 0x110 }
  - { offsetInCU: 0xBB6B, offset: 0xBB6B, size: 0x8, addend: 0x0, symName: __ZN13PhysicsEngineC2Ev, symObjAddr: 0x0, symBinAddr: 0x100000678, symSize: 0x34 }
  - { offsetInCU: 0xBB96, offset: 0xBB96, size: 0x8, addend: 0x0, symName: __ZNSt3__16vectorI9RectangleNS_9allocatorIS1_EEEC1B8ue170006Ev, symObjAddr: 0x34, symBinAddr: 0x1000006AC, symSize: 0x2C }
  - { offsetInCU: 0xBBBF, offset: 0xBBBF, size: 0x8, addend: 0x0, symName: __ZN13PhysicsEngineC1Ev, symObjAddr: 0x60, symBinAddr: 0x1000006D8, symSize: 0x2C }
  - { offsetInCU: 0xBBEA, offset: 0xBBEA, size: 0x8, addend: 0x0, symName: __ZN13PhysicsEngineD2Ev, symObjAddr: 0x8C, symBinAddr: 0x100000704, symSize: 0x30 }
  - { offsetInCU: 0xBC15, offset: 0xBC15, size: 0x8, addend: 0x0, symName: __ZNSt3__16vectorI9RectangleNS_9allocatorIS1_EEED1B8ue170006Ev, symObjAddr: 0xBC, symBinAddr: 0x100000734, symSize: 0x2C }
  - { offsetInCU: 0xBC3E, offset: 0xBC3E, size: 0x8, addend: 0x0, symName: __ZN13PhysicsEngineD1Ev, symObjAddr: 0xE8, symBinAddr: 0x100000760, symSize: 0x2C }
  - { offsetInCU: 0xBC69, offset: 0xBC69, size: 0x8, addend: 0x0, symName: __ZN13PhysicsEngine4initEPKciiiib, symObjAddr: 0x114, symBinAddr: 0x10000078C, symSize: 0x1C8 }
  - { offsetInCU: 0xBD0F, offset: 0xBD0F, size: 0x8, addend: 0x0, symName: __ZNSt3__113basic_ostreamIcNS_11char_traitsIcEEElsB8ue170006EPFRS3_S4_E, symObjAddr: 0x324, symBinAddr: 0x10000099C, symSize: 0x2C }
  - { offsetInCU: 0xBD42, offset: 0xBD42, size: 0x8, addend: 0x0, symName: __ZN9RectangleC1Eiiii, symObjAddr: 0x3A8, symBinAddr: 0x100000A20, symSize: 0x4C }
  - { offsetInCU: 0xBDA2, offset: 0xBDA2, size: 0x8, addend: 0x0, symName: __ZNSt3__16vectorI9RectangleNS_9allocatorIS1_EEE9push_backB8ue170006ERKS1_, symObjAddr: 0x3F4, symBinAddr: 0x100000A6C, symSize: 0x6C }
  - { offsetInCU: 0xBDD8, offset: 0xBDD8, size: 0x8, addend: 0x0, symName: __ZN13PhysicsEngine12handleEventsEv, symObjAddr: 0x460, symBinAddr: 0x100000AD8, symSize: 0x84 }
  - { offsetInCU: 0xBE0D, offset: 0xBE0D, size: 0x8, addend: 0x0, symName: __ZN13PhysicsEngine6updateEv, symObjAddr: 0x4E4, symBinAddr: 0x100000B5C, symSize: 0x110 }
  - { offsetInCU: 0xBEB0, offset: 0xBEB0, size: 0x8, addend: 0x0, symName: __ZNSt3__16vectorI9RectangleNS_9allocatorIS1_EEE5beginB8ue170006Ev, symObjAddr: 0x5F4, symBinAddr: 0x100000C6C, symSize: 0x30 }
  - { offsetInCU: 0xBED6, offset: 0xBED6, size: 0x8, addend: 0x0, symName: __ZNSt3__16vectorI9RectangleNS_9allocatorIS1_EEE3endB8ue170006Ev, symObjAddr: 0x624, symBinAddr: 0x100000C9C, symSize: 0x30 }
  - { offsetInCU: 0xBEFD, offset: 0xBEFD, size: 0x8, addend: 0x0, symName: __ZNKSt3__111__wrap_iterIP9RectangleEdeB8ue170006Ev, symObjAddr: 0x688, symBinAddr: 0x100000D00, symSize: 0x18 }
  - { offsetInCU: 0xBF22, offset: 0xBF22, size: 0x8, addend: 0x0, symName: __ZN9Rectangle14updatePositionEd, symObjAddr: 0x6A0, symBinAddr: 0x100000D18, symSize: 0x54 }
  - { offsetInCU: 0xBF55, offset: 0xBF55, size: 0x8, addend: 0x0, symName: __ZNSt3__111__wrap_iterIP9RectangleEppB8ue170006Ev, symObjAddr: 0x6F4, symBinAddr: 0x100000D6C, symSize: 0x20 }
  - { offsetInCU: 0xBF7A, offset: 0xBF7A, size: 0x8, addend: 0x0, symName: __ZN13PhysicsEngine6renderEv, symObjAddr: 0x714, symBinAddr: 0x100000D8C, symSize: 0x128 }
  - { offsetInCU: 0xC011, offset: 0xC011, size: 0x8, addend: 0x0, symName: __ZN9Rectangle7getRectEv, symObjAddr: 0x83C, symBinAddr: 0x100000EB4, symSize: 0x24 }
  - { offsetInCU: 0xC036, offset: 0xC036, size: 0x8, addend: 0x0, symName: __ZN13PhysicsEngine5cleanEv, symObjAddr: 0x860, symBinAddr: 0x100000ED8, symSize: 0x5C }
  - { offsetInCU: 0xC05D, offset: 0xC05D, size: 0x8, addend: 0x0, symName: __ZN9RectangleC2Eiiii, symObjAddr: 0x8BC, symBinAddr: 0x100000F34, symSize: 0x4C }
  - { offsetInCU: 0xC0BE, offset: 0xC0BE, size: 0x8, addend: 0x0, symName: __ZNKSt3__111__wrap_iterIP9RectangleE4baseB8ue170006Ev, symObjAddr: 0x950, symBinAddr: 0x100000FC8, symSize: 0x18 }
  - { offsetInCU: 0xC0E3, offset: 0xC0E3, size: 0x8, addend: 0x0, symName: __ZNSt3__16vectorI9RectangleNS_9allocatorIS1_EEEC2B8ue170006Ev, symObjAddr: 0x968, symBinAddr: 0x100000FE0, symSize: 0x4C }
  - { offsetInCU: 0xC116, offset: 0xC116, size: 0x8, addend: 0x0, symName: __ZNSt3__117__compressed_pairIP9RectangleNS_9allocatorIS1_EEEC1B8ue170006IDnNS_18__default_init_tagEEEOT_OT0_, symObjAddr: 0x9B4, symBinAddr: 0x10000102C, symSize: 0x3C }
  - { offsetInCU: 0xC16D, offset: 0xC16D, size: 0x8, addend: 0x0, symName: __ZNSt3__117__compressed_pairIP9RectangleNS_9allocatorIS1_EEEC2B8ue170006IDnNS_18__default_init_tagEEEOT_OT0_, symObjAddr: 0x9FC, symBinAddr: 0x100001074, symSize: 0x40 }
  - { offsetInCU: 0xC1C4, offset: 0xC1C4, size: 0x8, addend: 0x0, symName: __ZNSt3__122__compressed_pair_elemIP9RectangleLi0ELb0EEC2B8ue170006IDnvEEOT_, symObjAddr: 0xA3C, symBinAddr: 0x1000010B4, symSize: 0x1C }
  - { offsetInCU: 0xC205, offset: 0xC205, size: 0x8, addend: 0x0, symName: __ZNSt3__122__compressed_pair_elemINS_9allocatorI9RectangleEELi1ELb1EEC2B8ue170006ENS_18__default_init_tagE, symObjAddr: 0xA58, symBinAddr: 0x1000010D0, symSize: 0x2C }
  - { offsetInCU: 0xC239, offset: 0xC239, size: 0x8, addend: 0x0, symName: __ZNSt3__19allocatorI9RectangleEC2B8ue170006Ev, symObjAddr: 0xA84, symBinAddr: 0x1000010FC, symSize: 0x2C }
  - { offsetInCU: 0xC262, offset: 0xC262, size: 0x8, addend: 0x0, symName: __ZNSt3__116__non_trivial_ifILb1ENS_9allocatorI9RectangleEEEC2B8ue170006Ev, symObjAddr: 0xAB0, symBinAddr: 0x100001128, symSize: 0x14 }
  - { offsetInCU: 0xC28B, offset: 0xC28B, size: 0x8, addend: 0x0, symName: __ZNSt3__16vectorI9RectangleNS_9allocatorIS1_EEED2B8ue170006Ev, symObjAddr: 0xAC4, symBinAddr: 0x10000113C, symSize: 0x44 }
  - { offsetInCU: 0xC2B4, offset: 0xC2B4, size: 0x8, addend: 0x0, symName: __ZNSt3__16vectorI9RectangleNS_9allocatorIS1_EEE16__destroy_vectorC1B8ue170006ERS4_, symObjAddr: 0xB08, symBinAddr: 0x100001180, symSize: 0x34 }
  - { offsetInCU: 0xC2EC, offset: 0xC2EC, size: 0x8, addend: 0x0, symName: __ZNSt3__16vectorI9RectangleNS_9allocatorIS1_EEE16__destroy_vectorclB8ue170006Ev, symObjAddr: 0xB3C, symBinAddr: 0x1000011B4, symSize: 0x90 }
  - { offsetInCU: 0xC311, offset: 0xC311, size: 0x8, addend: 0x0, symName: __ZNSt3__16vectorI9RectangleNS_9allocatorIS1_EEE16__destroy_vectorC2B8ue170006ERS4_, symObjAddr: 0xBCC, symBinAddr: 0x100001244, symSize: 0x20 }
  - { offsetInCU: 0xC349, offset: 0xC349, size: 0x8, addend: 0x0, symName: __ZNSt3__16vectorI9RectangleNS_9allocatorIS1_EEE7__clearB8ue170006Ev, symObjAddr: 0xBEC, symBinAddr: 0x100001264, symSize: 0x28 }
  - { offsetInCU: 0xC36E, offset: 0xC36E, size: 0x8, addend: 0x0, symName: __ZNKSt3__16vectorI9RectangleNS_9allocatorIS1_EEE17__annotate_deleteB8ue170006Ev, symObjAddr: 0xC14, symBinAddr: 0x10000128C, symSize: 0xD4 }
  - { offsetInCU: 0xC393, offset: 0xC393, size: 0x8, addend: 0x0, symName: __ZNSt3__116allocator_traitsINS_9allocatorI9RectangleEEE10deallocateB8ue170006ERS3_PS2_m, symObjAddr: 0xCE8, symBinAddr: 0x100001360, symSize: 0x34 }
  - { offsetInCU: 0xC3D5, offset: 0xC3D5, size: 0x8, addend: 0x0, symName: __ZNSt3__16vectorI9RectangleNS_9allocatorIS1_EEE7__allocB8ue170006Ev, symObjAddr: 0xD1C, symBinAddr: 0x100001394, symSize: 0x28 }
  - { offsetInCU: 0xC3FA, offset: 0xC3FA, size: 0x8, addend: 0x0, symName: __ZNKSt3__16vectorI9RectangleNS_9allocatorIS1_EEE8capacityB8ue170006Ev, symObjAddr: 0xD44, symBinAddr: 0x1000013BC, symSize: 0x40 }
  - { offsetInCU: 0xC41F, offset: 0xC41F, size: 0x8, addend: 0x0, symName: __ZNSt3__16vectorI9RectangleNS_9allocatorIS1_EEE22__base_destruct_at_endB8ue170006EPS1_, symObjAddr: 0xD84, symBinAddr: 0x1000013FC, symSize: 0x8C }
  - { offsetInCU: 0xC462, offset: 0xC462, size: 0x8, addend: 0x0, symName: __ZNSt3__116allocator_traitsINS_9allocatorI9RectangleEEE7destroyB8ue170006IS2_vEEvRS3_PT_, symObjAddr: 0xE10, symBinAddr: 0x100001488, symSize: 0x2C }
  - { offsetInCU: 0xC49F, offset: 0xC49F, size: 0x8, addend: 0x0, symName: __ZNSt3__19allocatorI9RectangleE7destroyB8ue170006EPS1_, symObjAddr: 0xE50, symBinAddr: 0x1000014C8, symSize: 0x14 }
  - { offsetInCU: 0xC4D2, offset: 0xC4D2, size: 0x8, addend: 0x0, symName: __ZNKSt3__16vectorI9RectangleNS_9allocatorIS1_EEE31__annotate_contiguous_containerB8ue170006EPKvS6_S6_S6_, symObjAddr: 0xE64, symBinAddr: 0x1000014DC, symSize: 0x20 }
  - { offsetInCU: 0xC523, offset: 0xC523, size: 0x8, addend: 0x0, symName: __ZNKSt3__16vectorI9RectangleNS_9allocatorIS1_EEE4dataB8ue170006Ev, symObjAddr: 0xE84, symBinAddr: 0x1000014FC, symSize: 0x28 }
  - { offsetInCU: 0xC548, offset: 0xC548, size: 0x8, addend: 0x0, symName: __ZNKSt3__16vectorI9RectangleNS_9allocatorIS1_EEE4sizeB8ue170006Ev, symObjAddr: 0xEAC, symBinAddr: 0x100001524, symSize: 0x28 }
  - { offsetInCU: 0xC56D, offset: 0xC56D, size: 0x8, addend: 0x0, symName: __ZNSt3__19allocatorI9RectangleE10deallocateB8ue170006EPS1_m, symObjAddr: 0xED4, symBinAddr: 0x10000154C, symSize: 0x44 }
  - { offsetInCU: 0xC5AE, offset: 0xC5AE, size: 0x8, addend: 0x0, symName: __ZNSt3__117__compressed_pairIP9RectangleNS_9allocatorIS1_EEE6secondB8ue170006Ev, symObjAddr: 0xF94, symBinAddr: 0x10000160C, symSize: 0x24 }
  - { offsetInCU: 0xC5D3, offset: 0xC5D3, size: 0x8, addend: 0x0, symName: __ZNSt3__122__compressed_pair_elemINS_9allocatorI9RectangleEELi1ELb1EE5__getB8ue170006Ev, symObjAddr: 0xFB8, symBinAddr: 0x100001630, symSize: 0x14 }
  - { offsetInCU: 0xC5F8, offset: 0xC5F8, size: 0x8, addend: 0x0, symName: __ZNKSt3__16vectorI9RectangleNS_9allocatorIS1_EEE9__end_capB8ue170006Ev, symObjAddr: 0xFCC, symBinAddr: 0x100001644, symSize: 0x28 }
  - { offsetInCU: 0xC61D, offset: 0xC61D, size: 0x8, addend: 0x0, symName: __ZNKSt3__117__compressed_pairIP9RectangleNS_9allocatorIS1_EEE5firstB8ue170006Ev, symObjAddr: 0xFF4, symBinAddr: 0x10000166C, symSize: 0x24 }
  - { offsetInCU: 0xC642, offset: 0xC642, size: 0x8, addend: 0x0, symName: __ZNKSt3__122__compressed_pair_elemIP9RectangleLi0ELb0EE5__getB8ue170006Ev, symObjAddr: 0x1018, symBinAddr: 0x100001690, symSize: 0x14 }
  - { offsetInCU: 0xC667, offset: 0xC667, size: 0x8, addend: 0x0, symName: __ZNSt3__111char_traitsIcE6lengthB8ue170006EPKc, symObjAddr: 0x1218, symBinAddr: 0x100001890, symSize: 0x34 }
  - { offsetInCU: 0xC6A8, offset: 0xC6A8, size: 0x8, addend: 0x0, symName: __ZNKSt3__113basic_ostreamIcNS_11char_traitsIcEEE6sentrycvbB8ue170006Ev, symObjAddr: 0x124C, symBinAddr: 0x1000018C4, symSize: 0x1C }
  - { offsetInCU: 0xC6CD, offset: 0xC6CD, size: 0x8, addend: 0x0, symName: __ZNSt3__119ostreambuf_iteratorIcNS_11char_traitsIcEEEC1B8ue170006ERNS_13basic_ostreamIcS2_EE, symObjAddr: 0x14A8, symBinAddr: 0x100001B20, symSize: 0x34 }
  - { offsetInCU: 0xC704, offset: 0xC704, size: 0x8, addend: 0x0, symName: __ZNKSt3__18ios_base5flagsB8ue170006Ev, symObjAddr: 0x14DC, symBinAddr: 0x100001B54, symSize: 0x18 }
  - { offsetInCU: 0xC72A, offset: 0xC72A, size: 0x8, addend: 0x0, symName: __ZNKSt3__19basic_iosIcNS_11char_traitsIcEEE4fillB8ue170006Ev, symObjAddr: 0x14F4, symBinAddr: 0x100001B6C, symSize: 0x64 }
  - { offsetInCU: 0xC751, offset: 0xC751, size: 0x8, addend: 0x0, symName: __ZNKSt3__119ostreambuf_iteratorIcNS_11char_traitsIcEEE6failedB8ue170006Ev, symObjAddr: 0x1558, symBinAddr: 0x100001BD0, symSize: 0x24 }
  - { offsetInCU: 0xC776, offset: 0xC776, size: 0x8, addend: 0x0, symName: __ZNSt3__19basic_iosIcNS_11char_traitsIcEEE8setstateB8ue170006Ej, symObjAddr: 0x157C, symBinAddr: 0x100001BF4, symSize: 0x2C }
  - { offsetInCU: 0xC7AA, offset: 0xC7AA, size: 0x8, addend: 0x0, symName: __ZNKSt3__18ios_base5widthB8ue170006Ev, symObjAddr: 0x15A8, symBinAddr: 0x100001C20, symSize: 0x18 }
  - { offsetInCU: 0xC7D1, offset: 0xC7D1, size: 0x8, addend: 0x0, symName: __ZNSt3__115basic_streambufIcNS_11char_traitsIcEEE5sputnB8ue170006EPKcl, symObjAddr: 0x15C0, symBinAddr: 0x100001C38, symSize: 0x3C }
  - { offsetInCU: 0xC812, offset: 0xC812, size: 0x8, addend: 0x0, symName: __ZNSt3__112basic_stringIcNS_11char_traitsIcEENS_9allocatorIcEEEC1B8ue170006Emc, symObjAddr: 0x15FC, symBinAddr: 0x100001C74, symSize: 0x3C }
  - { offsetInCU: 0xC859, offset: 0xC859, size: 0x8, addend: 0x0, symName: __ZNKSt3__112basic_stringIcNS_11char_traitsIcEENS_9allocatorIcEEE4dataB8ue170006Ev, symObjAddr: 0x1638, symBinAddr: 0x100001CB0, symSize: 0x28 }
  - { offsetInCU: 0xC87E, offset: 0xC87E, size: 0x8, addend: 0x0, symName: __ZNSt3__18ios_base5widthB8ue170006El, symObjAddr: 0x1660, symBinAddr: 0x100001CD8, symSize: 0x2C }
  - { offsetInCU: 0xC8C3, offset: 0xC8C3, size: 0x8, addend: 0x0, symName: __ZNSt3__112basic_stringIcNS_11char_traitsIcEENS_9allocatorIcEEEC2B8ue170006Emc, symObjAddr: 0x168C, symBinAddr: 0x100001D04, symSize: 0x4C }
  - { offsetInCU: 0xC90A, offset: 0xC90A, size: 0x8, addend: 0x0, symName: __ZNSt3__117__compressed_pairINS_12basic_stringIcNS_11char_traitsIcEENS_9allocatorIcEEE5__repES5_EC1B8ue170006INS_18__default_init_tagESA_EEOT_OT0_, symObjAddr: 0x16D8, symBinAddr: 0x100001D50, symSize: 0x3C }
  - { offsetInCU: 0xC961, offset: 0xC961, size: 0x8, addend: 0x0, symName: __ZNSt3__117__compressed_pairINS_12basic_stringIcNS_11char_traitsIcEENS_9allocatorIcEEE5__repES5_EC2B8ue170006INS_18__default_init_tagESA_EEOT_OT0_, symObjAddr: 0x1714, symBinAddr: 0x100001D8C, symSize: 0x3C }
  - { offsetInCU: 0xC9B8, offset: 0xC9B8, size: 0x8, addend: 0x0, symName: __ZNSt3__122__compressed_pair_elemINS_12basic_stringIcNS_11char_traitsIcEENS_9allocatorIcEEE5__repELi0ELb0EEC2B8ue170006ENS_18__default_init_tagE, symObjAddr: 0x1750, symBinAddr: 0x100001DC8, symSize: 0x14 }
  - { offsetInCU: 0xC9EC, offset: 0xC9EC, size: 0x8, addend: 0x0, symName: __ZNSt3__122__compressed_pair_elemINS_9allocatorIcEELi1ELb1EEC2B8ue170006ENS_18__default_init_tagE, symObjAddr: 0x1764, symBinAddr: 0x100001DDC, symSize: 0x2C }
  - { offsetInCU: 0xCA20, offset: 0xCA20, size: 0x8, addend: 0x0, symName: __ZNSt3__19allocatorIcEC2B8ue170006Ev, symObjAddr: 0x1790, symBinAddr: 0x100001E08, symSize: 0x2C }
  - { offsetInCU: 0xCA49, offset: 0xCA49, size: 0x8, addend: 0x0, symName: __ZNSt3__116__non_trivial_ifILb1ENS_9allocatorIcEEEC2B8ue170006Ev, symObjAddr: 0x17BC, symBinAddr: 0x100001E34, symSize: 0x14 }
  - { offsetInCU: 0xCA72, offset: 0xCA72, size: 0x8, addend: 0x0, symName: __ZNKSt3__112basic_stringIcNS_11char_traitsIcEENS_9allocatorIcEEE13__get_pointerB8ue170006Ev, symObjAddr: 0x17E4, symBinAddr: 0x100001E5C, symSize: 0x54 }
  - { offsetInCU: 0xCA97, offset: 0xCA97, size: 0x8, addend: 0x0, symName: __ZNKSt3__112basic_stringIcNS_11char_traitsIcEENS_9allocatorIcEEE9__is_longB8ue170006Ev, symObjAddr: 0x1838, symBinAddr: 0x100001EB0, symSize: 0x38 }
  - { offsetInCU: 0xCABC, offset: 0xCABC, size: 0x8, addend: 0x0, symName: __ZNKSt3__112basic_stringIcNS_11char_traitsIcEENS_9allocatorIcEEE18__get_long_pointerB8ue170006Ev, symObjAddr: 0x1870, symBinAddr: 0x100001EE8, symSize: 0x28 }
  - { offsetInCU: 0xCAE1, offset: 0xCAE1, size: 0x8, addend: 0x0, symName: __ZNKSt3__112basic_stringIcNS_11char_traitsIcEENS_9allocatorIcEEE19__get_short_pointerB8ue170006Ev, symObjAddr: 0x1898, symBinAddr: 0x100001F10, symSize: 0x28 }
  - { offsetInCU: 0xCB06, offset: 0xCB06, size: 0x8, addend: 0x0, symName: __ZNKSt3__117__compressed_pairINS_12basic_stringIcNS_11char_traitsIcEENS_9allocatorIcEEE5__repES5_E5firstB8ue170006Ev, symObjAddr: 0x18C0, symBinAddr: 0x100001F38, symSize: 0x24 }
  - { offsetInCU: 0xCB2B, offset: 0xCB2B, size: 0x8, addend: 0x0, symName: __ZNKSt3__122__compressed_pair_elemINS_12basic_stringIcNS_11char_traitsIcEENS_9allocatorIcEEE5__repELi0ELb0EE5__getB8ue170006Ev, symObjAddr: 0x18E4, symBinAddr: 0x100001F5C, symSize: 0x14 }
  - { offsetInCU: 0xCB50, offset: 0xCB50, size: 0x8, addend: 0x0, symName: __ZNSt3__114pointer_traitsIPKcE10pointer_toB8ue170006ERS1_, symObjAddr: 0x18F8, symBinAddr: 0x100001F70, symSize: 0x14 }
  - { offsetInCU: 0xCB73, offset: 0xCB73, size: 0x8, addend: 0x0, symName: __ZNSt3__119ostreambuf_iteratorIcNS_11char_traitsIcEEEC2B8ue170006ERNS_13basic_ostreamIcS2_EE, symObjAddr: 0x190C, symBinAddr: 0x100001F84, symSize: 0x54 }
  - { offsetInCU: 0xCBA9, offset: 0xCBA9, size: 0x8, addend: 0x0, symName: __ZNKSt3__19basic_iosIcNS_11char_traitsIcEEE5rdbufB8ue170006Ev, symObjAddr: 0x1960, symBinAddr: 0x100001FD8, symSize: 0x24 }
  - { offsetInCU: 0xCBD0, offset: 0xCBD0, size: 0x8, addend: 0x0, symName: __ZNKSt3__18ios_base5rdbufB8ue170006Ev, symObjAddr: 0x1984, symBinAddr: 0x100001FFC, symSize: 0x18 }
  - { offsetInCU: 0xCBF5, offset: 0xCBF5, size: 0x8, addend: 0x0, symName: __ZNSt3__111char_traitsIcE11eq_int_typeB8ue170006Eii, symObjAddr: 0x199C, symBinAddr: 0x100002014, symSize: 0x28 }
  - { offsetInCU: 0xCC28, offset: 0xCC28, size: 0x8, addend: 0x0, symName: __ZNSt3__111char_traitsIcE3eofB8ue170006Ev, symObjAddr: 0x19C4, symBinAddr: 0x10000203C, symSize: 0x8 }
  - { offsetInCU: 0xCC3B, offset: 0xCC3B, size: 0x8, addend: 0x0, symName: __ZNKSt3__19basic_iosIcNS_11char_traitsIcEEE5widenB8ue170006Ec, symObjAddr: 0x19CC, symBinAddr: 0x100002044, symSize: 0x84 }
  - { offsetInCU: 0xCCA8, offset: 0xCCA8, size: 0x8, addend: 0x0, symName: __ZNKSt3__15ctypeIcE5widenB8ue170006Ec, symObjAddr: 0x1A7C, symBinAddr: 0x1000020F4, symSize: 0x38 }
  - { offsetInCU: 0xCCDB, offset: 0xCCDB, size: 0x8, addend: 0x0, symName: __ZNSt3__18ios_base8setstateB8ue170006Ej, symObjAddr: 0x1AB4, symBinAddr: 0x10000212C, symSize: 0x34 }
  - { offsetInCU: 0xCD11, offset: 0xCD11, size: 0x8, addend: 0x0, symName: __ZNSt3__16vectorI9RectangleNS_9allocatorIS1_EEE9__end_capB8ue170006Ev, symObjAddr: 0x1B0C, symBinAddr: 0x100002184, symSize: 0x28 }
  - { offsetInCU: 0xCD36, offset: 0xCD36, size: 0x8, addend: 0x0, symName: __ZNSt3__16vectorI9RectangleNS_9allocatorIS1_EEE22__construct_one_at_endB8ue170006IJRKS1_EEEvDpOT_, symObjAddr: 0x1B34, symBinAddr: 0x1000021AC, symSize: 0x90 }
  - { offsetInCU: 0xCD83, offset: 0xCD83, size: 0x8, addend: 0x0, symName: __ZNSt3__16vectorI9RectangleNS_9allocatorIS1_EEE21__push_back_slow_pathIRKS1_EEvOT_, symObjAddr: 0x1BC4, symBinAddr: 0x10000223C, symSize: 0xD8 }
  - { offsetInCU: 0xCDE0, offset: 0xCDE0, size: 0x8, addend: 0x0, symName: __ZNSt3__117__compressed_pairIP9RectangleNS_9allocatorIS1_EEE5firstB8ue170006Ev, symObjAddr: 0x1C9C, symBinAddr: 0x100002314, symSize: 0x24 }
  - { offsetInCU: 0xCE05, offset: 0xCE05, size: 0x8, addend: 0x0, symName: __ZNSt3__122__compressed_pair_elemIP9RectangleLi0ELb0EE5__getB8ue170006Ev, symObjAddr: 0x1CC0, symBinAddr: 0x100002338, symSize: 0x14 }
  - { offsetInCU: 0xCE43, offset: 0xCE43, size: 0x8, addend: 0x0, symName: __ZNSt3__16vectorI9RectangleNS_9allocatorIS1_EEE21_ConstructTransactionC1B8ue170006ERS4_m, symObjAddr: 0x1CD4, symBinAddr: 0x10000234C, symSize: 0x3C }
  - { offsetInCU: 0xCE8A, offset: 0xCE8A, size: 0x8, addend: 0x0, symName: __ZNSt3__116allocator_traitsINS_9allocatorI9RectangleEEE9constructB8ue170006IS2_JRKS2_EvEEvRS3_PT_DpOT0_, symObjAddr: 0x1D10, symBinAddr: 0x100002388, symSize: 0x34 }
  - { offsetInCU: 0xCEE1, offset: 0xCEE1, size: 0x8, addend: 0x0, symName: __ZNSt3__16vectorI9RectangleNS_9allocatorIS1_EEE21_ConstructTransactionD1B8ue170006Ev, symObjAddr: 0x1D44, symBinAddr: 0x1000023BC, symSize: 0x2C }
  - { offsetInCU: 0xCF0A, offset: 0xCF0A, size: 0x8, addend: 0x0, symName: __ZNSt3__16vectorI9RectangleNS_9allocatorIS1_EEE21_ConstructTransactionC2B8ue170006ERS4_m, symObjAddr: 0x1D70, symBinAddr: 0x1000023E8, symSize: 0x4C }
  - { offsetInCU: 0xCF51, offset: 0xCF51, size: 0x8, addend: 0x0, symName: __ZNSt3__19allocatorI9RectangleE9constructB8ue170006IS1_JRKS1_EEEvPT_DpOT0_, symObjAddr: 0x1DBC, symBinAddr: 0x100002434, symSize: 0x30 }
  - { offsetInCU: 0xCFA6, offset: 0xCFA6, size: 0x8, addend: 0x0, symName: __ZNSt3__16vectorI9RectangleNS_9allocatorIS1_EEE21_ConstructTransactionD2B8ue170006Ev, symObjAddr: 0x1DEC, symBinAddr: 0x100002464, symSize: 0x20 }
  - { offsetInCU: 0xCFCE, offset: 0xCFCE, size: 0x8, addend: 0x0, symName: __ZNKSt3__16vectorI9RectangleNS_9allocatorIS1_EEE11__recommendB8ue170006Em, symObjAddr: 0x1E0C, symBinAddr: 0x100002484, symSize: 0xB4 }
  - { offsetInCU: 0xD022, offset: 0xD022, size: 0x8, addend: 0x0, symName: __ZNSt3__114__split_bufferI9RectangleRNS_9allocatorIS1_EEEC1EmmS4_, symObjAddr: 0x1EC0, symBinAddr: 0x100002538, symSize: 0x44 }
  - { offsetInCU: 0xD077, offset: 0xD077, size: 0x8, addend: 0x0, symName: __ZNSt3__114__split_bufferI9RectangleRNS_9allocatorIS1_EEED1Ev, symObjAddr: 0x2014, symBinAddr: 0x10000268C, symSize: 0x2C }
  - { offsetInCU: 0xD0A1, offset: 0xD0A1, size: 0x8, addend: 0x0, symName: __ZNKSt3__16vectorI9RectangleNS_9allocatorIS1_EEE8max_sizeEv, symObjAddr: 0x2040, symBinAddr: 0x1000026B8, symSize: 0x60 }
  - { offsetInCU: 0xD0C8, offset: 0xD0C8, size: 0x8, addend: 0x0, symName: __ZNKSt3__16vectorI9RectangleNS_9allocatorIS1_EEE20__throw_length_errorB8ue170006Ev, symObjAddr: 0x20A0, symBinAddr: 0x100002718, symSize: 0x1C }
  - { offsetInCU: 0xD0F7, offset: 0xD0F7, size: 0x8, addend: 0x0, symName: __ZNSt3__116allocator_traitsINS_9allocatorI9RectangleEEE8max_sizeB8ue170006IS3_vEEmRKS3_, symObjAddr: 0x2114, symBinAddr: 0x10000278C, symSize: 0x24 }
  - { offsetInCU: 0xD125, offset: 0xD125, size: 0x8, addend: 0x0, symName: __ZNKSt3__16vectorI9RectangleNS_9allocatorIS1_EEE7__allocB8ue170006Ev, symObjAddr: 0x2138, symBinAddr: 0x1000027B0, symSize: 0x28 }
  - { offsetInCU: 0xD14A, offset: 0xD14A, size: 0x8, addend: 0x0, symName: __ZNSt3__114numeric_limitsIlE3maxB8ue170006Ev, symObjAddr: 0x2160, symBinAddr: 0x1000027D8, symSize: 0x14 }
  - { offsetInCU: 0xD172, offset: 0xD172, size: 0x8, addend: 0x0, symName: __ZNKSt3__16__lessIvvEclB8ue170006ImmEEbRKT_RKT0_, symObjAddr: 0x21C8, symBinAddr: 0x100002840, symSize: 0x34 }
  - { offsetInCU: 0xD1C5, offset: 0xD1C5, size: 0x8, addend: 0x0, symName: __ZNKSt3__19allocatorI9RectangleE8max_sizeB8ue170006Ev, symObjAddr: 0x21FC, symBinAddr: 0x100002874, symSize: 0x18 }
  - { offsetInCU: 0xD1EA, offset: 0xD1EA, size: 0x8, addend: 0x0, symName: __ZNKSt3__117__compressed_pairIP9RectangleNS_9allocatorIS1_EEE6secondB8ue170006Ev, symObjAddr: 0x2214, symBinAddr: 0x10000288C, symSize: 0x24 }
  - { offsetInCU: 0xD20F, offset: 0xD20F, size: 0x8, addend: 0x0, symName: __ZNKSt3__122__compressed_pair_elemINS_9allocatorI9RectangleEELi1ELb1EE5__getB8ue170006Ev, symObjAddr: 0x2238, symBinAddr: 0x1000028B0, symSize: 0x14 }
  - { offsetInCU: 0xD234, offset: 0xD234, size: 0x8, addend: 0x0, symName: __ZNSt3__123__libcpp_numeric_limitsIlLb1EE3maxB8ue170006Ev, symObjAddr: 0x224C, symBinAddr: 0x1000028C4, symSize: 0x8 }
  - { offsetInCU: 0xD248, offset: 0xD248, size: 0x8, addend: 0x0, symName: __ZNSt12length_errorC1B8ue170006EPKc, symObjAddr: 0x22B8, symBinAddr: 0x100002930, symSize: 0x34 }
  - { offsetInCU: 0xD27F, offset: 0xD27F, size: 0x8, addend: 0x0, symName: __ZNSt12length_errorC2B8ue170006EPKc, symObjAddr: 0x22EC, symBinAddr: 0x100002964, symSize: 0x4C }
  - { offsetInCU: 0xD2B6, offset: 0xD2B6, size: 0x8, addend: 0x0, symName: __ZNSt3__114__split_bufferI9RectangleRNS_9allocatorIS1_EEEC2EmmS4_, symObjAddr: 0x238C, symBinAddr: 0x100002A04, symSize: 0xE0 }
  - { offsetInCU: 0xD329, offset: 0xD329, size: 0x8, addend: 0x0, symName: __ZNSt3__117__compressed_pairIP9RectangleRNS_9allocatorIS1_EEEC1B8ue170006IDnS5_EEOT_OT0_, symObjAddr: 0x246C, symBinAddr: 0x100002AE4, symSize: 0x3C }
  - { offsetInCU: 0xD380, offset: 0xD380, size: 0x8, addend: 0x0, symName: __ZNSt3__114__split_bufferI9RectangleRNS_9allocatorIS1_EEE7__allocB8ue170006Ev, symObjAddr: 0x24E8, symBinAddr: 0x100002B60, symSize: 0x28 }
  - { offsetInCU: 0xD3A5, offset: 0xD3A5, size: 0x8, addend: 0x0, symName: __ZNSt3__114__split_bufferI9RectangleRNS_9allocatorIS1_EEE9__end_capB8ue170006Ev, symObjAddr: 0x2510, symBinAddr: 0x100002B88, symSize: 0x28 }
  - { offsetInCU: 0xD3CA, offset: 0xD3CA, size: 0x8, addend: 0x0, symName: __ZNSt3__117__compressed_pairIP9RectangleRNS_9allocatorIS1_EEEC2B8ue170006IDnS5_EEOT_OT0_, symObjAddr: 0x2538, symBinAddr: 0x100002BB0, symSize: 0x48 }
  - { offsetInCU: 0xD421, offset: 0xD421, size: 0x8, addend: 0x0, symName: __ZNSt3__122__compressed_pair_elemIRNS_9allocatorI9RectangleEELi1ELb0EEC2B8ue170006IS4_vEEOT_, symObjAddr: 0x2580, symBinAddr: 0x100002BF8, symSize: 0x20 }
  - { offsetInCU: 0xD462, offset: 0xD462, size: 0x8, addend: 0x0, symName: __ZNSt3__19allocatorI9RectangleE8allocateB8ue170006Em, symObjAddr: 0x25A0, symBinAddr: 0x100002C18, symSize: 0x5C }
  - { offsetInCU: 0xD495, offset: 0xD495, size: 0x8, addend: 0x0, symName: __ZNSt3__117__compressed_pairIP9RectangleRNS_9allocatorIS1_EEE6secondB8ue170006Ev, symObjAddr: 0x267C, symBinAddr: 0x100002CF4, symSize: 0x28 }
  - { offsetInCU: 0xD4BA, offset: 0xD4BA, size: 0x8, addend: 0x0, symName: __ZNSt3__122__compressed_pair_elemIRNS_9allocatorI9RectangleEELi1ELb0EE5__getB8ue170006Ev, symObjAddr: 0x26A4, symBinAddr: 0x100002D1C, symSize: 0x18 }
  - { offsetInCU: 0xD4DF, offset: 0xD4DF, size: 0x8, addend: 0x0, symName: __ZNSt3__117__compressed_pairIP9RectangleRNS_9allocatorIS1_EEE5firstB8ue170006Ev, symObjAddr: 0x26BC, symBinAddr: 0x100002D34, symSize: 0x24 }
  - { offsetInCU: 0xD504, offset: 0xD504, size: 0x8, addend: 0x0, symName: __ZNSt3__116reverse_iteratorIP9RectangleEC1B8ue170006ES2_, symObjAddr: 0x2758, symBinAddr: 0x100002DD0, symSize: 0x34 }
  - { offsetInCU: 0xD53B, offset: 0xD53B, size: 0x8, addend: 0x0, symName: __ZNKSt3__116reverse_iteratorIP9RectangleE4baseB8ue170006Ev, symObjAddr: 0x278C, symBinAddr: 0x100002E04, symSize: 0x18 }
  - { offsetInCU: 0xD560, offset: 0xD560, size: 0x8, addend: 0x0, symName: __ZNKSt3__16vectorI9RectangleNS_9allocatorIS1_EEE14__annotate_newB8ue170006Em, symObjAddr: 0x27E0, symBinAddr: 0x100002E58, symSize: 0xC8 }
  - { offsetInCU: 0xD5B7, offset: 0xD5B7, size: 0x8, addend: 0x0, symName: __ZNKSt3__111__move_loopINS_17_ClassicAlgPolicyEEclB8ue170006INS_16reverse_iteratorIP9RectangleEES7_S7_EENS_4pairIT_T1_EES9_T0_SA_, symObjAddr: 0x2B98, symBinAddr: 0x100003210, symSize: 0xA8 }
  - { offsetInCU: 0xD626, offset: 0xD626, size: 0x8, addend: 0x0, symName: __ZNSt3__18_IterOpsINS_17_ClassicAlgPolicyEE11__iter_moveB8ue170006IRNS_16reverse_iteratorIP9RectangleEEEENS_9enable_ifIXsr12is_referenceIDTdeclsr3stdE7declvalIRT_EEEEE5valueEDTclsr3stdE4movedeclsr3stdE7declvalISB_EEEEE4typeEOSA_, symObjAddr: 0x2DD4, symBinAddr: 0x10000344C, symSize: 0x28 }
  - { offsetInCU: 0xD652, offset: 0xD652, size: 0x8, addend: 0x0, symName: __ZNKSt3__116reverse_iteratorIP9RectangleEdeB8ue170006Ev, symObjAddr: 0x2DFC, symBinAddr: 0x100003474, symSize: 0x28 }
  - { offsetInCU: 0xD685, offset: 0xD685, size: 0x8, addend: 0x0, symName: __ZNSt3__116reverse_iteratorIP9RectangleEppB8ue170006Ev, symObjAddr: 0x2E24, symBinAddr: 0x10000349C, symSize: 0x20 }
  - { offsetInCU: 0xD6AA, offset: 0xD6AA, size: 0x8, addend: 0x0, symName: __ZNSt3__18_IterOpsINS_17_ClassicAlgPolicyEE25__validate_iter_referenceB8ue170006IRNS_16reverse_iteratorIP9RectangleEEEEvv, symObjAddr: 0x2E44, symBinAddr: 0x1000034BC, symSize: 0x4 }
  - { offsetInCU: 0xD6C8, offset: 0xD6C8, size: 0x8, addend: 0x0, symName: __ZNSt3__118__unwrap_iter_implINS_16reverse_iteratorIP9RectangleEELb0EE8__unwrapB8ue170006ES4_, symObjAddr: 0x2E48, symBinAddr: 0x1000034C0, symSize: 0x24 }
  - { offsetInCU: 0xD6F0, offset: 0xD6F0, size: 0x8, addend: 0x0, symName: __ZNSt3__14pairINS_16reverse_iteratorIP9RectangleEES4_EC1B8ue170006IS4_S4_LPv0EEEOT_OT0_, symObjAddr: 0x2E6C, symBinAddr: 0x1000034E4, symSize: 0x3C }
  - { offsetInCU: 0xD74D, offset: 0xD74D, size: 0x8, addend: 0x0, symName: __ZNSt3__14pairINS_16reverse_iteratorIP9RectangleEES4_EC2B8ue170006IS4_S4_LPv0EEEOT_OT0_, symObjAddr: 0x2EA8, symBinAddr: 0x100003520, symSize: 0x34 }
  - { offsetInCU: 0xD7AA, offset: 0xD7AA, size: 0x8, addend: 0x0, symName: __ZNSt3__118__unwrap_iter_implINS_16reverse_iteratorIP9RectangleEELb0EE8__rewrapB8ue170006ES4_S4_, symObjAddr: 0x2EDC, symBinAddr: 0x100003554, symSize: 0x2C }
  - { offsetInCU: 0xD7D8, offset: 0xD7D8, size: 0x8, addend: 0x0, symName: __ZNSt3__116reverse_iteratorIP9RectangleEC2B8ue170006ES2_, symObjAddr: 0x2F08, symBinAddr: 0x100003580, symSize: 0x28 }
  - { offsetInCU: 0xD80F, offset: 0xD80F, size: 0x8, addend: 0x0, symName: __ZNSt3__114__split_bufferI9RectangleRNS_9allocatorIS1_EEED2Ev, symObjAddr: 0x2F30, symBinAddr: 0x1000035A8, symSize: 0x8C }
  - { offsetInCU: 0xD83A, offset: 0xD83A, size: 0x8, addend: 0x0, symName: __ZNSt3__114__split_bufferI9RectangleRNS_9allocatorIS1_EEE5clearB8ue170006Ev, symObjAddr: 0x2FBC, symBinAddr: 0x100003634, symSize: 0x28 }
  - { offsetInCU: 0xD85F, offset: 0xD85F, size: 0x8, addend: 0x0, symName: __ZNKSt3__114__split_bufferI9RectangleRNS_9allocatorIS1_EEE8capacityB8ue170006Ev, symObjAddr: 0x2FE4, symBinAddr: 0x10000365C, symSize: 0x40 }
  - { offsetInCU: 0xD884, offset: 0xD884, size: 0x8, addend: 0x0, symName: __ZNSt3__114__split_bufferI9RectangleRNS_9allocatorIS1_EEE17__destruct_at_endB8ue170006EPS1_, symObjAddr: 0x3024, symBinAddr: 0x10000369C, symSize: 0x2C }
  - { offsetInCU: 0xD8B6, offset: 0xD8B6, size: 0x8, addend: 0x0, symName: __ZNSt3__114__split_bufferI9RectangleRNS_9allocatorIS1_EEE17__destruct_at_endB8ue170006EPS1_NS_17integral_constantIbLb0EEE, symObjAddr: 0x3050, symBinAddr: 0x1000036C8, symSize: 0x80 }
  - { offsetInCU: 0xD8F6, offset: 0xD8F6, size: 0x8, addend: 0x0, symName: __ZNKSt3__114__split_bufferI9RectangleRNS_9allocatorIS1_EEE9__end_capB8ue170006Ev, symObjAddr: 0x30D0, symBinAddr: 0x100003748, symSize: 0x28 }
  - { offsetInCU: 0xD91B, offset: 0xD91B, size: 0x8, addend: 0x0, symName: __ZNKSt3__117__compressed_pairIP9RectangleRNS_9allocatorIS1_EEE5firstB8ue170006Ev, symObjAddr: 0x30F8, symBinAddr: 0x100003770, symSize: 0x24 }
  - { offsetInCU: 0xD940, offset: 0xD940, size: 0x8, addend: 0x0, symName: __ZNSt3__16vectorI9RectangleNS_9allocatorIS1_EEE11__make_iterB8ue170006EPS1_, symObjAddr: 0x311C, symBinAddr: 0x100003794, symSize: 0x30 }
  - { offsetInCU: 0xD974, offset: 0xD974, size: 0x8, addend: 0x0, symName: __ZNSt3__111__wrap_iterIP9RectangleEC1B8ue170006ES2_, symObjAddr: 0x314C, symBinAddr: 0x1000037C4, symSize: 0x34 }
  - { offsetInCU: 0xD9AB, offset: 0xD9AB, size: 0x8, addend: 0x0, symName: __ZNSt3__111__wrap_iterIP9RectangleEC2B8ue170006ES2_, symObjAddr: 0x3180, symBinAddr: 0x1000037F8, symSize: 0x20 }
  - { offsetInCU: 0x26, offset: 0xEA53, size: 0x8, addend: 0x0, symName: _main, symObjAddr: 0x0, symBinAddr: 0x100003818, symSize: 0x2C }
  - { offsetInCU: 0x40, offset: 0xEA6D, size: 0x8, addend: 0x0, symName: _physicsEngine, symObjAddr: 0xC418, symBinAddr: 0x100008000, symSize: 0x0 }
  - { offsetInCU: 0x350B, offset: 0x11F38, size: 0x8, addend: 0x0, symName: _main, symObjAddr: 0x0, symBinAddr: 0x100003818, symSize: 0x2C }
  - { offsetInCU: 0x3525, offset: 0x11F52, size: 0x8, addend: 0x0, symName: __Z7executev, symObjAddr: 0x2C, symBinAddr: 0x100003844, symSize: 0xD4 }
  - { offsetInCU: 0x353F, offset: 0x11F6C, size: 0x8, addend: 0x0, symName: __ZN13PhysicsEngine7runningEv, symObjAddr: 0x100, symBinAddr: 0x100003918, symSize: 0x1C }
...
